((lp1
(lp2
I0
aI0
aa(lp3
I0
aI0
aa(lp4
I0
aI0
aa(lp5
I0
aI0
aa(lp6
I0
aI0
aa(lp7
I0
aI0
aa(lp8
I0
aI0
aa(lp9
I0
aI0
aa(lp10
I0
aI0
aa(lp11
I0
aI0
aa(lp12
I0
aI0
aa(lp13
I0
aI0
aa(lp14
I0
aI0
aa(lp15
I0
aI0
aa(lp16
I0
aI0
aa(lp17
I0
aI0
aa(lp18
I0
aI0
aa(lp19
I0
aI0
aa(lp20
I0
aI0
aa(lp21
I0
aI0
aa(lp22
I0
aI0
aa(lp23
I0
aI0
aa(lp24
I0
aI0
aa(lp25
I0
aI0
aa(lp26
I0
aI0
aa(lp27
I0
aI0
aa(lp28
I0
aI0
aa(lp29
I0
aI0
aa(lp30
I0
aI0
aa(lp31
I0
aI0
aa(lp32
I0
aI0
aa(lp33
I0
aI0
aa(lp34
I0
aI0
aa(lp35
I0
aI0
aa(lp36
I0
aI0
aa(lp37
I0
aI0
aa(lp38
I0
aI0
aa(lp39
I0
aI0
aa(lp40
I0
aI0
aa(lp41
I0
aI0
aa(lp42
I0
aI0
aa(lp43
I0
aI0
aa(lp44
I0
aI0
aa(lp45
F-499.5
aI0
aa(lp46
F1
aI0
aa(lp47
F1
aI0
aa(lp48
F1
aI0
aa(lp49
F1
aI0
aa(lp50
F1
aI0
aa(lp51
F-248.75
aF2.5
aa(lp52
F1.7777777777777777
aI0
aa(lp53
F2.2095238095238092
aI0
aa(lp54
F2.0571428571428574
aI0
aa(lp55
F1.9277777777777778
aI0
aa(lp56
F2.2523809523809524
aI0
aa(lp57
F2.0571428571428574
aI0
aa(lp58
F-140.92936507936508
aI0
aa(lp59
F2.3368055555555554
aI0
aa(lp60
F2.3010582010582015
aI0
aa(lp61
F2.193948412698413
aI0
aa(lp62
F2.3368055555555554
aI0
aa(lp63
F2.3010582010582015
aI0
aa(lp64
F2.193948412698413
aI0
aa(lp65
F2.3368055555555554
aI0
aa(lp66
F2.3301587301587299
aI0
aa(lp67
F2.1222222222222222
aI0
aa(lp68
F2.1749999999999998
aI0
aa(lp69
F2.1214285714285714
aI0
aa(lp70
F1.95
aI0
aa(lp71
I0
aF4.1183775257409163
aa(lp72
F2.8514999479012224
aI0
aa(lp73
F2.3210528497675726
aI0
aa(lp74
F2.3855902777777778
aI0
aa(lp75
F2.1076388888888888
aI0
aa(lp76
F1.949074074074074
aI0
aa(lp77
F1.9416666666666667
aI0
aa(lp78
F1
aF2.7916666666666665
aa(lp79
F1.5
aI0
aa(lp80
F1.5
aI0
aa(lp81
F2.0800000000000001
aF3.3999999999999999
aa(lp82
F2.1466666666666665
aF1
aa(lp83
F1.9666666666666666
aF5.6241182020755955
aa(lp84
F2.7736314492385672
aI0
aa(lp85
F2.3362929894179896
aF5.995858791554852
aa(lp86
F3.0267218501984128
aI0
aa(lp87
F2.4908145599096119
aI0
aa(lp88
F2.6092152777777775
aF5.2309219458430229
aa(lp89
F4.4061579970797222
aI0
aa(lp90
F3.9257620233551247
aF-7.6461137962578745
aa(lp91
F4.2606520373365431
aI0
aa(lp92
F2.5428571428571427
aF6.3062648552160123
aa(lp93
F3.9205444929624553
aF2.5458333333333334
aa(lp94
F3.1624614197530865
aF4.4527924837710362
aa(lp95
F3.4839120370370367
aF6.4160113820279019
aa(lp96
F3.5096153846153846
aF6.0095798416465902
aa(lp97
F3.471241100641417
aF1
aa(lp98
F3.0829402224334954
aF5.4264528200084454
aa(lp99
F3.7635504826588484
aF2
aa(lp100
F3.2475421319874704
aI0
aa(lp101
F2.9669505591594953
aF6.2873220389982558
aa(lp102
F3.747891206016206
aF6.7097664565521775
aa(lp103
F3.186075951825952
aF6.5209393398714344
aa(lp104
F4.1497464378761713
aI0
aa(lp105
F3.7459102468048577
aF3
aa(lp106
F3.2324603174603173
aF6.2674339663037193
aa(lp107
F-35.432055414263395
aF-18.92983446962711
aa(lp108
F1.4032414882142876
aF6.0811983551712521
aa(lp109
F5.9538266844666339
aI0
aa(lp110
F6.2734752066347532
aF-161.29493779433082
aa(lp111
F6.5490060847088678
aI0
aa(lp112
F6.7341322933531442
aF-509.00875949345152
aa(lp113
F6.9290886746522755
aF2.5672880274206076
aa(lp114
F7.081791178288003
aF-999
aa(lp115
F7.2380614190655468
aF2.8711979166666666
aa(lp116
F7.3010890210643504
aF2.5108526720987068
aa(lp117
F7.3053202115401321
aF-162.23345498660291
aa(lp118
F7.2467094628484796
aF-246.06485644035422
aa(lp119
F7.1874880179379241
aF3.2598683733860172
aa(lp120
F7.220702746154787
aF3.6741045429837422
aa(lp121
F7.4671538879005936
aF-997.38516748694349
aa(lp122
F7.5875529167820552
aI0
aa(lp123
F7.5176500169508405
aF2.6716545375369778
aa(lp124
F7.2901322106911044
aF-496.29796949082663
aa(lp125
F7.0331020628392995
aF-246.74322972139197
aa(lp126
F7.0592410642016752
aI0
aa(lp127
F6.9659490002304647
aF3.5566096230158735
aa(lp128
F6.2806465699945599
aF-997.34511408730157
aa(lp129
F6.160391311959339
aF2.8611111111111112
aa(lp130
F5.8783833229723434
aF2.9722222222222223
aa(lp131
F-8.6018053050496039
aF-331.01208410442155
aa(lp132
F-5.1831417460754015
aF-569.01387156368446
aa(lp133
F0.64252167015679851
aI0
aa(lp134
F3.5426248760532011
aI0
aa(lp135
F4.4133965218175728
aF-998
aa(lp136
F4.7623658985333064
aF2.666666666666667
aa(lp137
F4.8759716275113183
aF-497.11111111111109
aa(lp138
F4.6927274515176478
aF-96.26126408152885
aa(lp139
F4.625788288219594
aF2.1666666666666665
aa(lp140
F4.4268896555946577
aF-997.91145833333337
aa(lp141
F4.2916271377882689
aI0
aa(lp142
F4.4630561673457958
aF1.5
aa(lp143
F4.3986666100515324
aF-998.33333333333337
aa(lp144
F4.2330059519417444
aF1.875
aa(lp145
F4.408044487301586
aI0
aa(lp146
F4.5717505053132728
aI0
aa(lp147
F4.2985695768059333
aF-998.27204585537913
aa(lp148
F4.1062999797760886
aF-331.33333333333331
aa(lp149
F4.0853259130931354
aF-247.27209230914588
aa(lp150
F4.1960275550075119
aI0
aa(lp151
F4.6373532553694643
aF2
aa(lp152
F-25.806077611444053
aF-247.97222222222223
aa(lp153
F-10.633170510436868
aF-999
aa(lp154
F0.98687188837184903
aF-998
aa(lp155
F3.6031814395178916
aF-998.5
aa(lp156
F3.777259186576047
aF2
aa(lp157
F3.7818025266847579
aI0
aa(lp158
F4.0348848997857312
aI0
aa(lp159
F3.7301463558259282
aI0
aa(lp160
F3.2926833266362854
aF-997.84444444444443
aa(lp161
F3.3950427953087075
aF-999
aa(lp162
F3.6670414914940004
aF-999.5
aa(lp163
F3.404029401751516
aF-999
aa(lp164
F3.3691040246404627
aI0
aa(lp165
F3.3545283820301099
aF-999
aa(lp166
F2.8961255449340531
aF1
aa(lp167
F3.1894392001110896
aF-999
aa(lp168
F3.1345916434515204
aI0
aa(lp169
F2.7167974758831273
aF1
aa(lp170
F2.8766527355494138
aI0
aa(lp171
F2.8508319565504761
aI0
aa(lp172
F2.0349688888888888
aI0
aa(lp173
F1.7888888888888888
aF-1000
aa(lp174
F2
aI0
aa(lp175
F1.6666666666666667
aI0
aa(lp176
F1.5833333333333333
aI0
aa(lp177
F1.6666666666666667
aI0
aa(lp178
F1.3333333333333333
aI0
aa(lp179
F1
aI0
aa(lp180
F1
aI0
aa(lp181
F1
aI0
aa(lp182
F1
aI0
aa(lp183
F1
aI0
aa(lp184
F1
aI0
aa(lp185
I0
aI0
aa(lp186
I0
aI0
aa(lp187
I0
aI0
aa(lp188
I0
aF-1000
aa(lp189
I0
aI0
aa(lp190
I0
aI0
aa(lp191
I0
aI0
aa(lp192
I0
aI0
aa(lp193
I0
aI0
aa(lp194
I0
aI0
aa(lp195
I0
aI0
aa(lp196
I0
aI0
aa(lp197
I0
aI0
aa(lp198
I0
aI0
aa(lp199
I0
aI0
aa(lp200
I0
aI0
aa(lp201
I0
aI0
aa(lp202
I0
aI0
aa(lp203
I0
aI0
aa(lp204
I0
aI0
aa(lp205
I0
aI0
aa(lp206
I0
aI0
aa(lp207
I0
aI0
aa(lp208
I0
aI0
aa(lp209
I0
aI0
aa(lp210
I0
aI0
aa(lp211
I0
aI0
aa(lp212
I0
aI0
aa(lp213
I0
aI0
aa(lp214
I0
aI0
aa(lp215
I0
aI0
aa(lp216
I0
aI0
aa(lp217
I0
aI0
aa(lp218
I0
aI0
aa(lp219
I0
aI0
aa(lp220
I0
aI0
aa(lp221
I0
aI0
aa(lp222
I0
aI0
aa(lp223
I0
aI0
aa(lp224
I0
aI0
aa(lp225
I0
aI0
aa(lp226
I0
aI0
aa(lp227
I0
aI0
aa(lp228
I0
aI0
aa(lp229
I0
aI0
aa(lp230
I0
aI0
aa(lp231
I0
aI0
aa(lp232
I0
aI0
aa(lp233
I0
aI0
aa(lp234
I0
aI0
aa(lp235
I0
aI0
aa(lp236
I0
aI0
aa(lp237
I0
aI0
aa(lp238
I0
aI0
aa(lp239
I0
aI0
aa(lp240
I0
aI0
aa(lp241
I0
aI0
aa(lp242
I0
aI0
aa(lp243
I0
aI0
aa(lp244
I0
aI0
aa(lp245
I0
aI0
aa(lp246
I0
aI0
aa(lp247
I0
aI0
aa(lp248
I0
aI0
aa(lp249
I0
aI0
aa(lp250
I0
aI0
aa(lp251
I0
aI0
aa(lp252
I0
aI0
aa(lp253
I0
aI0
aa(lp254
I0
aI0
aa(lp255
I0
aI0
aa(lp256
I0
aI0
aa(lp257
I0
aI0
aa(lp258
I0
aI0
aa(lp259
I0
aI0
aa(lp260
I0
aI0
aa(lp261
I0
aI0
aa(lp262
I0
aI0
aa(lp263
I0
aI0
aa(lp264
I0
aI0
aa(lp265
I0
aI0
aa(lp266
I0
aI0
aa(lp267
I0
aI0
aa(lp268
I0
aI0
aa(lp269
I0
aI0
aa(lp270
I0
aI0
aa(lp271
I0
aI0
aa(lp272
I0
aI0
aa(lp273
I0
aI0
aa(lp274
I0
aI0
aa(lp275
I0
aI0
aa(lp276
I0
aI0
aa(lp277
I0
aI0
aa(lp278
I0
aI0
aa(lp279
I0
aI0
aa(lp280
I0
aI0
aa(lp281
I0
aI0
aa(lp282
I0
aI0
aa(lp283
I0
aI0
aa(lp284
I0
aI0
aa(lp285
I0
aI0
aa(lp286
I0
aI0
aa(lp287
I0
aI0
aa(lp288
I0
aI0
aa(lp289
I0
aI0
aa(lp290
I0
aI0
aa(lp291
I0
aI0
aa(lp292
I0
aI0
aa(lp293
I0
aI0
aa(lp294
I0
aI0
aa(lp295
I0
aI0
aa(lp296
I0
aI0
aa(lp297
I0
aI0
aa(lp298
I0
aI0
aa(lp299
I0
aI0
aa(lp300
I0
aI0
aa(lp301
I0
aI0
aa(lp302
I0
aI0
aa(lp303
I0
aI0
aa(lp304
I0
aI0
aa(lp305
I0
aI0
aa(lp306
I0
aI0
aa(lp307
I0
aI0
aa(lp308
I0
aI0
aa(lp309
I0
aI0
aa(lp310
I0
aI0
aa(lp311
I0
aI0
aa(lp312
I0
aI0
aa(lp313
I0
aI0
aa(lp314
I0
aI0
aa(lp315
I0
aI0
aa(lp316
I0
aI0
aa(lp317
I0
aI0
aa(lp318
I0
aI0
aa(lp319
I0
aI0
aa(lp320
I0
aI0
aa(lp321
I0
aI0
aa(lp322
I0
aI0
aa(lp323
I0
aI0
aa(lp324
I0
aI0
aa(lp325
I0
aI0
aa(lp326
I0
aI0
aa(lp327
I0
aI0
aa(lp328
I0
aI0
aa(lp329
I0
aI0
aa(lp330
I0
aI0
aa(lp331
I0
aI0
aa(lp332
I0
aI0
aa(lp333
I0
aI0
aa(lp334
I0
aI0
aa(lp335
I0
aI0
aa(lp336
I0
aI0
aa(lp337
I0
aI0
aa(lp338
I0
aI0
aa(lp339
I0
aI0
aa(lp340
I0
aI0
aa(lp341
I0
aI0
aa(lp342
I0
aI0
aa(lp343
I0
aI0
aa(lp344
I0
aI0
aa(lp345
I0
aI0
aa(lp346
I0
aI0
aa(lp347
I0
aI0
aa(lp348
I0
aI0
aa(lp349
I0
aI0
aa(lp350
I0
aI0
aa(lp351
I0
aI0
aa(lp352
I0
aI0
aa(lp353
I0
aI0
aa(lp354
I0
aI0
aa(lp355
I0
aI0
aa(lp356
I0
aI0
aa(lp357
I0
aI0
aa(lp358
I0
aI0
aa(lp359
I0
aI0
aa(lp360
I0
aI0
aa(lp361
I0
aI0
aa(lp362
I0
aI0
aa(lp363
I0
aI0
aa(lp364
I0
aI0
aa(lp365
I0
aI0
aa(lp366
I0
aI0
aa(lp367
I0
aI0
aa(lp368
I0
aI0
aa(lp369
I0
aI0
aa(lp370
I0
aI0
aa(lp371
I0
aI0
aa(lp372
I0
aI0
aa(lp373
I0
aI0
aa(lp374
I0
aI0
aa(lp375
I0
aI0
aa(lp376
I0
aI0
aa(lp377
I0
aI0
aa(lp378
I0
aI0
aa(lp379
I0
aI0
aa(lp380
I0
aI0
aa(lp381
I0
aI0
aa(lp382
I0
aI0
aa(lp383
I0
aI0
aa(lp384
I0
aI0
aa(lp385
I0
aI0
aa(lp386
I0
aI0
aa(lp387
I0
aI0
aa(lp388
I0
aI0
aa(lp389
I0
aI0
aa(lp390
I0
aI0
aa(lp391
I0
aI0
aa(lp392
I0
aI0
aa(lp393
I0
aI0
aa(lp394
I0
aI0
aa(lp395
I0
aI0
aa(lp396
I0
aI0
aa(lp397
I0
aI0
aa(lp398
I0
aI0
aa(lp399
I0
aI0
aa(lp400
I0
aI0
aa(lp401
I0
aI0
aa(lp402
I0
aI0
aa(lp403
I0
aI0
aa(lp404
I0
aI0
aa(lp405
I0
aI0
aa(lp406
I0
aI0
aa(lp407
I0
aI0
aa(lp408
I0
aI0
aa(lp409
I0
aI0
aa(lp410
I0
aI0
aa(lp411
I0
aI0
aa(lp412
I0
aI0
aa(lp413
I0
aI0
aa(lp414
I0
aI0
aa(lp415
I0
aI0
aa(lp416
I0
aI0
aa(lp417
I0
aI0
aa(lp418
I0
aI0
aa(lp419
I0
aI0
aa(lp420
I0
aI0
aa(lp421
I0
aI0
aa(lp422
I0
aI0
aa(lp423
I0
aI0
aa(lp424
I0
aI0
aa(lp425
I0
aI0
aa(lp426
I0
aI0
aa(lp427
I0
aI0
aa(lp428
I0
aI0
aa(lp429
I0
aI0
aa(lp430
I0
aI0
aa(lp431
I0
aI0
aa(lp432
I0
aI0
aa(lp433
I0
aI0
aa(lp434
I0
aI0
aa(lp435
I0
aI0
aa(lp436
I0
aI0
aa(lp437
I0
aI0
aa(lp438
I0
aI0
aa(lp439
I0
aI0
aa(lp440
I0
aI0
aa(lp441
I0
aI0
aa(lp442
I0
aI0
aa(lp443
I0
aI0
aa(lp444
I0
aI0
aa(lp445
I0
aI0
aa(lp446
I0
aI0
aa(lp447
I0
aI0
aa(lp448
I0
aI0
aa(lp449
I0
aI0
aa(lp450
I0
aI0
aa(lp451
I0
aI0
aa(lp452
I0
aI0
aa(lp453
I0
aI0
aa(lp454
I0
aI0
aa(lp455
I0
aI0
aa(lp456
I0
aI0
aa(lp457
I0
aI0
aa(lp458
I0
aI0
aa(lp459
I0
aI0
aa(lp460
I0
aI0
aa(lp461
I0
aI0
aa(lp462
I0
aI0
aa(lp463
I0
aI0
aa(lp464
I0
aI0
aa(lp465
I0
aI0
aa(lp466
I0
aI0
aa(lp467
I0
aI0
aa(lp468
I0
aI0
aa(lp469
I0
aI0
aa(lp470
I0
aI0
aa(lp471
I0
aI0
aa(lp472
I0
aI0
aa(lp473
I0
aI0
aa(lp474
I0
aI0
aa(lp475
I0
aI0
aa(lp476
I0
aI0
aa(lp477
I0
aI0
aa(lp478
I0
aI0
aa(lp479
I0
aI0
aa(lp480
I0
aI0
aa(lp481
I0
aI0
aa(lp482
I0
aI0
aa(lp483
I0
aI0
aa(lp484
I0
aI0
aa(lp485
I0
aI0
aa(lp486
I0
aI0
aa(lp487
I0
aI0
aa(lp488
I0
aI0
aa(lp489
I0
aI0
aa(lp490
I0
aI0
aa(lp491
I0
aI0
aa(lp492
I0
aI0
aa(lp493
I0
aI0
aa(lp494
I0
aI0
aa(lp495
I0
aI0
aa(lp496
I0
aI0
aa(lp497
I0
aI0
aa(lp498
I0
aI0
aa(lp499
I0
aI0
aa(lp500
I0
aI0
aa(lp501
I0
aI0
aa(lp502
(lp503
I0
aI0
aa(lp504
I0
aI0
aa(lp505
I0
aI0
aa(lp506
I0
aI0
aa(lp507
I0
aI0
aa(lp508
I0
aI0
aa(lp509
I0
aI0
aa(lp510
I0
aI0
aa(lp511
I0
aI0
aa(lp512
I0
aI0
aa(lp513
I0
aI0
aa(lp514
I0
aI0
aa(lp515
I0
aI0
aa(lp516
I0
aI0
aa(lp517
I0
aI0
aa(lp518
I0
aI0
aa(lp519
I0
aI0
aa(lp520
I0
aI0
aa(lp521
I0
aI0
aa(lp522
I0
aI0
aa(lp523
I0
aI0
aa(lp524
I0
aI0
aa(lp525
I0
aI0
aa(lp526
I0
aI0
aa(lp527
I0
aI0
aa(lp528
I0
aI0
aa(lp529
I0
aI0
aa(lp530
I0
aI0
aa(lp531
I0
aI0
aa(lp532
I0
aI0
aa(lp533
I0
aI0
aa(lp534
I0
aI0
aa(lp535
I0
aI0
aa(lp536
I0
aI0
aa(lp537
I0
aI0
aa(lp538
I0
aI0
aa(lp539
I0
aI0
aa(lp540
I0
aI0
aa(lp541
I0
aI0
aa(lp542
I0
aI0
aa(lp543
I0
aI0
aa(lp544
I0
aI0
aa(lp545
I0
aI0
aa(lp546
I2
aI0
aa(lp547
I2
aI0
aa(lp548
I1
aI0
aa(lp549
I2
aI0
aa(lp550
I2
aI0
aa(lp551
I1
aI0
aa(lp552
I4
aI2
aa(lp553
I6
aI0
aa(lp554
I7
aI0
aa(lp555
I7
aI0
aa(lp556
I6
aI0
aa(lp557
I7
aI0
aa(lp558
I7
aI0
aa(lp559
I7
aI0
aa(lp560
I8
aI0
aa(lp561
I9
aI0
aa(lp562
I8
aI0
aa(lp563
I8
aI0
aa(lp564
I9
aI0
aa(lp565
I8
aI0
aa(lp566
I8
aI0
aa(lp567
I8
aI0
aa(lp568
I7
aI0
aa(lp569
I6
aI0
aa(lp570
I7
aI0
aa(lp571
I4
aI0
aa(lp572
I0
aI6
aa(lp573
I9
aI0
aa(lp574
I8
aI0
aa(lp575
I8
aI0
aa(lp576
I8
aI0
aa(lp577
I6
aI0
aa(lp578
I4
aI0
aa(lp579
I2
aI1
aa(lp580
I4
aI0
aa(lp581
I2
aI0
aa(lp582
I5
aI1
aa(lp583
I5
aI1
aa(lp584
I5
aI5
aa(lp585
I12
aI0
aa(lp586
I10
aI2
aa(lp587
I10
aI0
aa(lp588
I12
aI0
aa(lp589
I9
aI10
aa(lp590
I17
aI0
aa(lp591
I12
aI2
aa(lp592
I8
aI0
aa(lp593
I7
aI3
aa(lp594
I11
aI2
aa(lp595
I12
aI2
aa(lp596
I10
aI4
aa(lp597
I13
aI3
aa(lp598
I14
aI1
aa(lp599
I16
aI4
aa(lp600
I19
aI1
aa(lp601
I15
aI0
aa(lp602
I13
aI10
aa(lp603
I24
aI8
aa(lp604
I10
aI12
aa(lp605
I31
aI0
aa(lp606
I32
aI1
aa(lp607
I15
aI14
aa(lp608
I25
aI41
aa(lp609
I90
aI318
aa(lp610
I623
aI0
aa(lp611
I621
aI6
aa(lp612
I645
aI0
aa(lp613
I641
aI2
aa(lp614
I636
aI13
aa(lp615
I659
aI1
aa(lp616
I652
aI2
aa(lp617
I655
aI2
aa(lp618
I672
aI6
aa(lp619
I679
aI4
aa(lp620
I667
aI3
aa(lp621
I676
aI1
aa(lp622
I654
aI1
aa(lp623
I657
aI0
aa(lp624
I661
aI3
aa(lp625
I651
aI2
aa(lp626
I645
aI4
aa(lp627
I607
aI0
aa(lp628
I299
aI2
aa(lp629
I112
aI1
aa(lp630
I118
aI1
aa(lp631
I103
aI3
aa(lp632
I106
aI3
aa(lp633
I107
aI7
aa(lp634
I84
aI0
aa(lp635
I85
aI0
aa(lp636
I88
aI1
aa(lp637
I68
aI1
aa(lp638
I66
aI2
aa(lp639
I75
aI10
aa(lp640
I71
aI3
aa(lp641
I73
aI1
aa(lp642
I78
aI0
aa(lp643
I63
aI2
aa(lp644
I63
aI1
aa(lp645
I66
aI2
aa(lp646
I52
aI0
aa(lp647
I44
aI0
aa(lp648
I49
aI3
aa(lp649
I48
aI3
aa(lp650
I45
aI4
aa(lp651
I53
aI0
aa(lp652
I48
aI1
aa(lp653
I46
aI4
aa(lp654
I44
aI1
aa(lp655
I42
aI1
aa(lp656
I47
aI2
aa(lp657
I46
aI1
aa(lp658
I33
aI0
aa(lp659
I26
aI0
aa(lp660
I25
aI0
aa(lp661
I18
aI1
aa(lp662
I20
aI1
aa(lp663
I21
aI2
aa(lp664
I21
aI1
aa(lp665
I22
aI0
aa(lp666
I18
aI1
aa(lp667
I19
aI1
aa(lp668
I20
aI1
aa(lp669
I14
aI0
aa(lp670
I10
aI1
aa(lp671
I11
aI0
aa(lp672
I9
aI0
aa(lp673
I4
aI0
aa(lp674
I5
aI1
aa(lp675
I5
aI0
aa(lp676
I4
aI0
aa(lp677
I4
aI0
aa(lp678
I3
aI0
aa(lp679
I3
aI0
aa(lp680
I2
aI0
aa(lp681
I1
aI0
aa(lp682
I2
aI0
aa(lp683
I2
aI0
aa(lp684
I1
aI0
aa(lp685
I2
aI0
aa(lp686
I0
aI0
aa(lp687
I0
aI0
aa(lp688
I0
aI0
aa(lp689
I0
aI1
aa(lp690
I0
aI0
aa(lp691
I0
aI0
aa(lp692
I0
aI0
aa(lp693
I0
aI0
aa(lp694
I0
aI0
aa(lp695
I0
aI0
aa(lp696
I0
aI0
aa(lp697
I0
aI0
aa(lp698
I0
aI0
aa(lp699
I0
aI0
aa(lp700
I0
aI0
aa(lp701
I0
aI0
aa(lp702
I0
aI0
aa(lp703
I0
aI0
aa(lp704
I0
aI0
aa(lp705
I0
aI0
aa(lp706
I0
aI0
aa(lp707
I0
aI0
aa(lp708
I0
aI0
aa(lp709
I0
aI0
aa(lp710
I0
aI0
aa(lp711
I0
aI0
aa(lp712
I0
aI0
aa(lp713
I0
aI0
aa(lp714
I0
aI0
aa(lp715
I0
aI0
aa(lp716
I0
aI0
aa(lp717
I0
aI0
aa(lp718
I0
aI0
aa(lp719
I0
aI0
aa(lp720
I0
aI0
aa(lp721
I0
aI0
aa(lp722
I0
aI0
aa(lp723
I0
aI0
aa(lp724
I0
aI0
aa(lp725
I0
aI0
aa(lp726
I0
aI0
aa(lp727
I0
aI0
aa(lp728
I0
aI0
aa(lp729
I0
aI0
aa(lp730
I0
aI0
aa(lp731
I0
aI0
aa(lp732
I0
aI0
aa(lp733
I0
aI0
aa(lp734
I0
aI0
aa(lp735
I0
aI0
aa(lp736
I0
aI0
aa(lp737
I0
aI0
aa(lp738
I0
aI0
aa(lp739
I0
aI0
aa(lp740
I0
aI0
aa(lp741
I0
aI0
aa(lp742
I0
aI0
aa(lp743
I0
aI0
aa(lp744
I0
aI0
aa(lp745
I0
aI0
aa(lp746
I0
aI0
aa(lp747
I0
aI0
aa(lp748
I0
aI0
aa(lp749
I0
aI0
aa(lp750
I0
aI0
aa(lp751
I0
aI0
aa(lp752
I0
aI0
aa(lp753
I0
aI0
aa(lp754
I0
aI0
aa(lp755
I0
aI0
aa(lp756
I0
aI0
aa(lp757
I0
aI0
aa(lp758
I0
aI0
aa(lp759
I0
aI0
aa(lp760
I0
aI0
aa(lp761
I0
aI0
aa(lp762
I0
aI0
aa(lp763
I0
aI0
aa(lp764
I0
aI0
aa(lp765
I0
aI0
aa(lp766
I0
aI0
aa(lp767
I0
aI0
aa(lp768
I0
aI0
aa(lp769
I0
aI0
aa(lp770
I0
aI0
aa(lp771
I0
aI0
aa(lp772
I0
aI0
aa(lp773
I0
aI0
aa(lp774
I0
aI0
aa(lp775
I0
aI0
aa(lp776
I0
aI0
aa(lp777
I0
aI0
aa(lp778
I0
aI0
aa(lp779
I0
aI0
aa(lp780
I0
aI0
aa(lp781
I0
aI0
aa(lp782
I0
aI0
aa(lp783
I0
aI0
aa(lp784
I0
aI0
aa(lp785
I0
aI0
aa(lp786
I0
aI0
aa(lp787
I0
aI0
aa(lp788
I0
aI0
aa(lp789
I0
aI0
aa(lp790
I0
aI0
aa(lp791
I0
aI0
aa(lp792
I0
aI0
aa(lp793
I0
aI0
aa(lp794
I0
aI0
aa(lp795
I0
aI0
aa(lp796
I0
aI0
aa(lp797
I0
aI0
aa(lp798
I0
aI0
aa(lp799
I0
aI0
aa(lp800
I0
aI0
aa(lp801
I0
aI0
aa(lp802
I0
aI0
aa(lp803
I0
aI0
aa(lp804
I0
aI0
aa(lp805
I0
aI0
aa(lp806
I0
aI0
aa(lp807
I0
aI0
aa(lp808
I0
aI0
aa(lp809
I0
aI0
aa(lp810
I0
aI0
aa(lp811
I0
aI0
aa(lp812
I0
aI0
aa(lp813
I0
aI0
aa(lp814
I0
aI0
aa(lp815
I0
aI0
aa(lp816
I0
aI0
aa(lp817
I0
aI0
aa(lp818
I0
aI0
aa(lp819
I0
aI0
aa(lp820
I0
aI0
aa(lp821
I0
aI0
aa(lp822
I0
aI0
aa(lp823
I0
aI0
aa(lp824
I0
aI0
aa(lp825
I0
aI0
aa(lp826
I0
aI0
aa(lp827
I0
aI0
aa(lp828
I0
aI0
aa(lp829
I0
aI0
aa(lp830
I0
aI0
aa(lp831
I0
aI0
aa(lp832
I0
aI0
aa(lp833
I0
aI0
aa(lp834
I0
aI0
aa(lp835
I0
aI0
aa(lp836
I0
aI0
aa(lp837
I0
aI0
aa(lp838
I0
aI0
aa(lp839
I0
aI0
aa(lp840
I0
aI0
aa(lp841
I0
aI0
aa(lp842
I0
aI0
aa(lp843
I0
aI0
aa(lp844
I0
aI0
aa(lp845
I0
aI0
aa(lp846
I0
aI0
aa(lp847
I0
aI0
aa(lp848
I0
aI0
aa(lp849
I0
aI0
aa(lp850
I0
aI0
aa(lp851
I0
aI0
aa(lp852
I0
aI0
aa(lp853
I0
aI0
aa(lp854
I0
aI0
aa(lp855
I0
aI0
aa(lp856
I0
aI0
aa(lp857
I0
aI0
aa(lp858
I0
aI0
aa(lp859
I0
aI0
aa(lp860
I0
aI0
aa(lp861
I0
aI0
aa(lp862
I0
aI0
aa(lp863
I0
aI0
aa(lp864
I0
aI0
aa(lp865
I0
aI0
aa(lp866
I0
aI0
aa(lp867
I0
aI0
aa(lp868
I0
aI0
aa(lp869
I0
aI0
aa(lp870
I0
aI0
aa(lp871
I0
aI0
aa(lp872
I0
aI0
aa(lp873
I0
aI0
aa(lp874
I0
aI0
aa(lp875
I0
aI0
aa(lp876
I0
aI0
aa(lp877
I0
aI0
aa(lp878
I0
aI0
aa(lp879
I0
aI0
aa(lp880
I0
aI0
aa(lp881
I0
aI0
aa(lp882
I0
aI0
aa(lp883
I0
aI0
aa(lp884
I0
aI0
aa(lp885
I0
aI0
aa(lp886
I0
aI0
aa(lp887
I0
aI0
aa(lp888
I0
aI0
aa(lp889
I0
aI0
aa(lp890
I0
aI0
aa(lp891
I0
aI0
aa(lp892
I0
aI0
aa(lp893
I0
aI0
aa(lp894
I0
aI0
aa(lp895
I0
aI0
aa(lp896
I0
aI0
aa(lp897
I0
aI0
aa(lp898
I0
aI0
aa(lp899
I0
aI0
aa(lp900
I0
aI0
aa(lp901
I0
aI0
aa(lp902
I0
aI0
aa(lp903
I0
aI0
aa(lp904
I0
aI0
aa(lp905
I0
aI0
aa(lp906
I0
aI0
aa(lp907
I0
aI0
aa(lp908
I0
aI0
aa(lp909
I0
aI0
aa(lp910
I0
aI0
aa(lp911
I0
aI0
aa(lp912
I0
aI0
aa(lp913
I0
aI0
aa(lp914
I0
aI0
aa(lp915
I0
aI0
aa(lp916
I0
aI0
aa(lp917
I0
aI0
aa(lp918
I0
aI0
aa(lp919
I0
aI0
aa(lp920
I0
aI0
aa(lp921
I0
aI0
aa(lp922
I0
aI0
aa(lp923
I0
aI0
aa(lp924
I0
aI0
aa(lp925
I0
aI0
aa(lp926
I0
aI0
aa(lp927
I0
aI0
aa(lp928
I0
aI0
aa(lp929
I0
aI0
aa(lp930
I0
aI0
aa(lp931
I0
aI0
aa(lp932
I0
aI0
aa(lp933
I0
aI0
aa(lp934
I0
aI0
aa(lp935
I0
aI0
aa(lp936
I0
aI0
aa(lp937
I0
aI0
aa(lp938
I0
aI0
aa(lp939
I0
aI0
aa(lp940
I0
aI0
aa(lp941
I0
aI0
aa(lp942
I0
aI0
aa(lp943
I0
aI0
aa(lp944
I0
aI0
aa(lp945
I0
aI0
aa(lp946
I0
aI0
aa(lp947
I0
aI0
aa(lp948
I0
aI0
aa(lp949
I0
aI0
aa(lp950
I0
aI0
aa(lp951
I0
aI0
aa(lp952
I0
aI0
aa(lp953
I0
aI0
aa(lp954
I0
aI0
aa(lp955
I0
aI0
aa(lp956
I0
aI0
aa(lp957
I0
aI0
aa(lp958
I0
aI0
aa(lp959
I0
aI0
aa(lp960
I0
aI0
aa(lp961
I0
aI0
aa(lp962
I0
aI0
aa(lp963
I0
aI0
aa(lp964
I0
aI0
aa(lp965
I0
aI0
aa(lp966
I0
aI0
aa(lp967
I0
aI0
aa(lp968
I0
aI0
aa(lp969
I0
aI0
aa(lp970
I0
aI0
aa(lp971
I0
aI0
aa(lp972
I0
aI0
aa(lp973
I0
aI0
aa(lp974
I0
aI0
aa(lp975
I0
aI0
aa(lp976
I0
aI0
aa(lp977
I0
aI0
aa(lp978
I0
aI0
aa(lp979
I0
aI0
aa(lp980
I0
aI0
aa(lp981
I0
aI0
aa(lp982
I0
aI0
aa(lp983
I0
aI0
aa(lp984
I0
aI0
aa(lp985
I0
aI0
aa(lp986
I0
aI0
aa(lp987
I0
aI0
aa(lp988
I0
aI0
aa(lp989
I0
aI0
aa(lp990
I0
aI0
aa(lp991
I0
aI0
aa(lp992
I0
aI0
aa(lp993
I0
aI0
aa(lp994
I0
aI0
aa(lp995
I0
aI0
aa(lp996
I0
aI0
aa(lp997
I0
aI0
aa(lp998
I0
aI0
aa(lp999
I0
aI0
aa(lp1000
I0
aI0
aa(lp1001
I0
aI0
aa(lp1002
I0
aI0
aaI46
t.